; ModuleID = '5/815.c'
source_filename = "5/815.c"
target datalayout = "e-m:e-p270:32:32-p271:32:32-p272:64:64-i64:64-f80:128-n8:16:32:64-S128"
target triple = "x86_64-pc-linux-gnu"

@.str = private unnamed_addr constant [4 x i8] c"%lf\00", align 1
@.str.1 = private unnamed_addr constant [3 x i8] c"%s\00", align 1
@.str.2 = private unnamed_addr constant [4 x i8] c"yes\00", align 1
@.str.3 = private unnamed_addr constant [3 x i8] c"no\00", align 1
@.str.4 = private unnamed_addr constant [6 x i8] c"error\00", align 1

; Function Attrs: noinline nounwind uwtable
define dso_local i32 @main() #0 {
  %1 = alloca i32, align 4
  %2 = alloca i32, align 4
  %3 = alloca i32, align 4
  %4 = alloca i32, align 4
  %5 = alloca i32, align 4
  %6 = alloca i32, align 4
  %7 = alloca double, align 8
  %8 = alloca double, align 8
  %9 = alloca [3 x [502 x i8]], align 16
  store i32 0, i32* %1, align 4
  store i32 0, i32* %4, align 4
  store i32 0, i32* %5, align 4
  %10 = call i32 (i8*, ...) @__isoc99_scanf(i8* getelementptr inbounds ([4 x i8], [4 x i8]* @.str, i64 0, i64 0), double* %7)
  store i32 0, i32* %6, align 4
  br label %11

11:                                               ; preds = %20, %0
  %12 = load i32, i32* %6, align 4
  %13 = icmp slt i32 %12, 2
  br i1 %13, label %14, label %23

14:                                               ; preds = %11
  %15 = load i32, i32* %6, align 4
  %16 = sext i32 %15 to i64
  %17 = getelementptr inbounds [3 x [502 x i8]], [3 x [502 x i8]]* %9, i64 0, i64 %16
  %18 = getelementptr inbounds [502 x i8], [502 x i8]* %17, i64 0, i64 0
  %19 = call i32 (i8*, ...) @__isoc99_scanf(i8* getelementptr inbounds ([3 x i8], [3 x i8]* @.str.1, i64 0, i64 0), i8* %18)
  br label %20

20:                                               ; preds = %14
  %21 = load i32, i32* %6, align 4
  %22 = add nsw i32 %21, 1
  store i32 %22, i32* %6, align 4
  br label %11

23:                                               ; preds = %11
  %24 = getelementptr inbounds [3 x [502 x i8]], [3 x [502 x i8]]* %9, i64 0, i64 0
  %25 = getelementptr inbounds [502 x i8], [502 x i8]* %24, i64 0, i64 0
  %26 = call i64 @strlen(i8* %25) #3
  %27 = trunc i64 %26 to i32
  store i32 %27, i32* %2, align 4
  %28 = getelementptr inbounds [3 x [502 x i8]], [3 x [502 x i8]]* %9, i64 0, i64 1
  %29 = getelementptr inbounds [502 x i8], [502 x i8]* %28, i64 0, i64 0
  %30 = call i64 @strlen(i8* %29) #3
  %31 = trunc i64 %30 to i32
  store i32 %31, i32* %3, align 4
  %32 = load i32, i32* %2, align 4
  %33 = load i32, i32* %3, align 4
  %34 = icmp eq i32 %32, %33
  br i1 %34, label %35, label %157

35:                                               ; preds = %23
  store i32 0, i32* %4, align 4
  br label %36

36:                                               ; preds = %58, %35
  %37 = load i32, i32* %4, align 4
  %38 = load i32, i32* %2, align 4
  %39 = icmp slt i32 %37, %38
  br i1 %39, label %40, label %61

40:                                               ; preds = %36
  %41 = getelementptr inbounds [3 x [502 x i8]], [3 x [502 x i8]]* %9, i64 0, i64 0
  %42 = load i32, i32* %4, align 4
  %43 = sext i32 %42 to i64
  %44 = getelementptr inbounds [502 x i8], [502 x i8]* %41, i64 0, i64 %43
  %45 = load i8, i8* %44, align 1
  %46 = sext i8 %45 to i32
  %47 = getelementptr inbounds [3 x [502 x i8]], [3 x [502 x i8]]* %9, i64 0, i64 1
  %48 = load i32, i32* %4, align 4
  %49 = sext i32 %48 to i64
  %50 = getelementptr inbounds [502 x i8], [502 x i8]* %47, i64 0, i64 %49
  %51 = load i8, i8* %50, align 1
  %52 = sext i8 %51 to i32
  %53 = icmp eq i32 %46, %52
  br i1 %53, label %54, label %57

54:                                               ; preds = %40
  %55 = load i32, i32* %5, align 4
  %56 = add nsw i32 %55, 1
  store i32 %56, i32* %5, align 4
  br label %57

57:                                               ; preds = %54, %40
  br label %58

58:                                               ; preds = %57
  %59 = load i32, i32* %4, align 4
  %60 = add nsw i32 %59, 1
  store i32 %60, i32* %4, align 4
  br label %36

61:                                               ; preds = %36
  store i32 0, i32* %4, align 4
  br label %62

62:                                               ; preds = %132, %61
  %63 = load i32, i32* %4, align 4
  %64 = load i32, i32* %2, align 4
  %65 = icmp slt i32 %63, %64
  br i1 %65, label %66, label %135

66:                                               ; preds = %62
  %67 = getelementptr inbounds [3 x [502 x i8]], [3 x [502 x i8]]* %9, i64 0, i64 0
  %68 = load i32, i32* %4, align 4
  %69 = sext i32 %68 to i64
  %70 = getelementptr inbounds [502 x i8], [502 x i8]* %67, i64 0, i64 %69
  %71 = load i8, i8* %70, align 1
  %72 = sext i8 %71 to i32
  %73 = icmp ne i32 %72, 65
  br i1 %73, label %74, label %98

74:                                               ; preds = %66
  %75 = getelementptr inbounds [3 x [502 x i8]], [3 x [502 x i8]]* %9, i64 0, i64 0
  %76 = load i32, i32* %4, align 4
  %77 = sext i32 %76 to i64
  %78 = getelementptr inbounds [502 x i8], [502 x i8]* %75, i64 0, i64 %77
  %79 = load i8, i8* %78, align 1
  %80 = sext i8 %79 to i32
  %81 = icmp ne i32 %80, 71
  br i1 %81, label %82, label %98

82:                                               ; preds = %74
  %83 = getelementptr inbounds [3 x [502 x i8]], [3 x [502 x i8]]* %9, i64 0, i64 0
  %84 = load i32, i32* %4, align 4
  %85 = sext i32 %84 to i64
  %86 = getelementptr inbounds [502 x i8], [502 x i8]* %83, i64 0, i64 %85
  %87 = load i8, i8* %86, align 1
  %88 = sext i8 %87 to i32
  %89 = icmp ne i32 %88, 67
  br i1 %89, label %90, label %98

90:                                               ; preds = %82
  %91 = getelementptr inbounds [3 x [502 x i8]], [3 x [502 x i8]]* %9, i64 0, i64 0
  %92 = load i32, i32* %4, align 4
  %93 = sext i32 %92 to i64
  %94 = getelementptr inbounds [502 x i8], [502 x i8]* %91, i64 0, i64 %93
  %95 = load i8, i8* %94, align 1
  %96 = sext i8 %95 to i32
  %97 = icmp ne i32 %96, 84
  br i1 %97, label %130, label %98

98:                                               ; preds = %90, %82, %74, %66
  %99 = getelementptr inbounds [3 x [502 x i8]], [3 x [502 x i8]]* %9, i64 0, i64 1
  %100 = load i32, i32* %4, align 4
  %101 = sext i32 %100 to i64
  %102 = getelementptr inbounds [502 x i8], [502 x i8]* %99, i64 0, i64 %101
  %103 = load i8, i8* %102, align 1
  %104 = sext i8 %103 to i32
  %105 = icmp ne i32 %104, 65
  br i1 %105, label %106, label %131

106:                                              ; preds = %98
  %107 = getelementptr inbounds [3 x [502 x i8]], [3 x [502 x i8]]* %9, i64 0, i64 1
  %108 = load i32, i32* %4, align 4
  %109 = sext i32 %108 to i64
  %110 = getelementptr inbounds [502 x i8], [502 x i8]* %107, i64 0, i64 %109
  %111 = load i8, i8* %110, align 1
  %112 = sext i8 %111 to i32
  %113 = icmp ne i32 %112, 71
  br i1 %113, label %114, label %131

114:                                              ; preds = %106
  %115 = getelementptr inbounds [3 x [502 x i8]], [3 x [502 x i8]]* %9, i64 0, i64 1
  %116 = load i32, i32* %4, align 4
  %117 = sext i32 %116 to i64
  %118 = getelementptr inbounds [502 x i8], [502 x i8]* %115, i64 0, i64 %117
  %119 = load i8, i8* %118, align 1
  %120 = sext i8 %119 to i32
  %121 = icmp ne i32 %120, 67
  br i1 %121, label %122, label %131

122:                                              ; preds = %114
  %123 = getelementptr inbounds [3 x [502 x i8]], [3 x [502 x i8]]* %9, i64 0, i64 1
  %124 = load i32, i32* %4, align 4
  %125 = sext i32 %124 to i64
  %126 = getelementptr inbounds [502 x i8], [502 x i8]* %123, i64 0, i64 %125
  %127 = load i8, i8* %126, align 1
  %128 = sext i8 %127 to i32
  %129 = icmp ne i32 %128, 84
  br i1 %129, label %130, label %131

130:                                              ; preds = %122, %90
  br label %135

131:                                              ; preds = %122, %114, %106, %98
  br label %132

132:                                              ; preds = %131
  %133 = load i32, i32* %4, align 4
  %134 = add nsw i32 %133, 1
  store i32 %134, i32* %4, align 4
  br label %62

135:                                              ; preds = %130, %62
  %136 = load i32, i32* %4, align 4
  %137 = load i32, i32* %2, align 4
  %138 = icmp eq i32 %136, %137
  br i1 %138, label %139, label %154

139:                                              ; preds = %135
  %140 = load i32, i32* %5, align 4
  %141 = sitofp i32 %140 to double
  %142 = fmul double %141, 1.000000e+00
  %143 = load i32, i32* %2, align 4
  %144 = sitofp i32 %143 to double
  %145 = fdiv double %142, %144
  store double %145, double* %8, align 8
  %146 = load double, double* %8, align 8
  %147 = load double, double* %7, align 8
  %148 = fcmp ogt double %146, %147
  br i1 %148, label %149, label %151

149:                                              ; preds = %139
  %150 = call i32 (i8*, ...) @printf(i8* getelementptr inbounds ([4 x i8], [4 x i8]* @.str.2, i64 0, i64 0))
  br label %153

151:                                              ; preds = %139
  %152 = call i32 (i8*, ...) @printf(i8* getelementptr inbounds ([3 x i8], [3 x i8]* @.str.3, i64 0, i64 0))
  br label %153

153:                                              ; preds = %151, %149
  br label %156

154:                                              ; preds = %135
  %155 = call i32 (i8*, ...) @printf(i8* getelementptr inbounds ([6 x i8], [6 x i8]* @.str.4, i64 0, i64 0))
  br label %156

156:                                              ; preds = %154, %153
  br label %159

157:                                              ; preds = %23
  %158 = call i32 (i8*, ...) @printf(i8* getelementptr inbounds ([6 x i8], [6 x i8]* @.str.4, i64 0, i64 0))
  br label %159

159:                                              ; preds = %157, %156
  ret i32 0
}

declare dso_local i32 @__isoc99_scanf(i8*, ...) #1

; Function Attrs: nounwind readonly
declare dso_local i64 @strlen(i8*) #2

declare dso_local i32 @printf(i8*, ...) #1


!llvm.module.flags = !{!0}
!llvm.ident = !{!1}

!0 = !{i32 1, !"wchar_size", i32 4}
!1 = !{!"clang version 10.0.0-4ubuntu1 "}
